Certificate:
    Data:
        Version: 3 (0x2)
        Serial Number:
            26:c2:3f:f6:b3:e7:21:a6:c8:5b:f5:4f:34:6c:a6:b9
        Signature Algorithm: sha256WithRSAEncryption
        Issuer: CN=Easy-RSA CA
        Validity
            Not Before: Aug 13 01:17:01 2024 GMT
            Not After : Jul 20 01:17:01 2124 GMT
        Subject: CN=github.com
        Subject Public Key Info:
            Public Key Algorithm: rsaEncryption
                Public-Key: (2048 bit)
                Modulus:
                    00:a4:73:08:8b:a1:c6:c1:cf:ed:98:b3:be:a5:d5:
                    7a:6c:39:ee:7f:46:65:d9:98:af:24:04:b9:29:ae:
                    a7:29:27:11:78:b5:ea:d2:07:c2:04:d2:1f:41:37:
                    1f:07:18:8e:6f:03:c7:6a:04:93:57:8d:bf:93:b1:
                    e7:3e:11:d0:f5:0d:40:99:6e:6b:64:0b:9e:4e:b4:
                    5a:f0:ce:f5:d6:d4:60:b2:26:69:56:14:8b:cb:8d:
                    6e:c9:dc:1b:22:d6:01:aa:dd:3b:a1:33:e9:e0:7c:
                    d4:81:12:53:61:75:61:19:95:1c:f0:b4:5b:e5:1f:
                    59:c6:d4:08:1d:21:41:71:2c:e5:7d:bb:15:fa:bb:
                    01:15:18:6c:a9:73:c1:cb:8d:6b:73:5a:7b:67:15:
                    50:a7:31:52:87:61:a6:38:a7:bd:f7:ca:e2:78:73:
                    f0:ec:f8:46:e1:7f:67:5b:8d:c0:bc:49:ca:56:ab:
                    27:f9:10:d7:9f:2a:62:2a:0f:99:40:cc:b7:cd:01:
                    22:e6:5b:e7:b8:dd:d8:cd:92:80:5f:eb:37:a1:4c:
                    1e:0a:da:62:37:4a:a4:65:fd:6e:75:b4:ca:7c:4a:
                    a3:1b:07:c5:14:46:c5:6a:43:fe:ad:8a:6f:1a:9a:
                    05:53:96:58:4e:e8:6a:33:66:31:48:a9:cd:fc:d0:
                    ba:97
                Exponent: 65537 (0x10001)
        X509v3 extensions:
            X509v3 Basic Constraints:
                CA:FALSE
            X509v3 Subject Key Identifier:
                0A:EC:B4:29:22:54:E2:74:75:53:18:8B:02:E7:A7:E7:84:55:30:5C
            X509v3 Authority Key Identifier:
                keyid:65:0E:49:15:0D:35:EC:D7:A0:3C:96:1E:F0:C8:0D:72:87:BB:4F:42
                DirName:/CN=Easy-RSA CA
                serial:5E:52:EE:F4:2F:99:3D:2D:F4:F7:D0:07:1F:7A:D7:30:E3:47:6F:4C
            X509v3 Extended Key Usage:
                TLS Web Server Authentication
            X509v3 Key Usage:
                Digital Signature, Key Encipherment
            X509v3 Subject Alternative Name:
                DNS:github.com, DNS:*.github.com, DNS:*.githubusercontent.com, DNS:*githubassets.com, DNS:ghcr.io
    Signature Algorithm: sha256WithRSAEncryption
    Signature Value:
        5c:5a:e9:34:e3:fb:f6:97:13:86:a5:ff:fb:5e:a3:1f:a4:0c:
        f7:61:a7:09:ae:97:2e:ae:6f:88:8f:c0:a5:14:06:c2:2f:a4:
        2b:1a:72:71:00:ab:92:c7:8e:e1:5d:6e:a4:11:35:21:7f:94:
        ed:72:95:32:cb:5e:a4:61:14:0c:fc:1b:22:8f:72:62:cb:ef:
        ba:86:86:0e:03:ae:6f:4d:36:f5:db:0d:d3:d2:94:d7:88:e6:
        45:53:59:e4:bc:7c:75:83:47:0d:e8:fd:62:59:76:3e:f8:0b:
        b5:e0:5c:e0:17:cf:7a:92:d7:da:b3:4b:6d:31:20:c8:48:63:
        b1:d8:cf:2c:90:c3:c3:bd:f6:31:d5:62:ee:1a:81:b0:cc:a9:
        30:cc:d7:45:12:a1:70:e1:f7:62:72:13:55:fe:3c:2b:53:9b:
        93:77:21:82:42:b4:8d:2f:a2:b9:1d:36:22:f9:29:8e:d2:ce:
        c0:7b:96:a1:00:00:0b:e9:77:48:c5:0f:a8:33:a0:73:d6:41:
        9f:98:56:dc:80:88:2a:b4:28:d6:0b:e3:85:b4:d4:0d:e9:94:
        b1:aa:ed:b4:bf:94:36:48:01:d1:dc:ae:4d:46:5d:bc:69:2c:
        45:e7:4a:dc:0a:d0:96:34:08:31:e1:37:60:ac:36:85:20:5b:
        67:74:03:8a
-----BEGIN CERTIFICATE-----
MIIDtDCCApygAwIBAgIQJsI/9rPnIabIW/VPNGymuTANBgkqhkiG9w0BAQsFADAW
MRQwEgYDVQQDDAtFYXN5LVJTQSBDQTAgFw0yNDA4MTMwMTE3MDFaGA8yMTI0MDcy
MDAxMTcwMVowFTETMBEGA1UEAwwKZ2l0aHViLmNvbTCCASIwDQYJKoZIhvcNAQEB
BQADggEPADCCAQoCggEBAKRzCIuhxsHP7ZizvqXVemw57n9GZdmYryQEuSmupykn
EXi16tIHwgTSH0E3HwcYjm8Dx2oEk1eNv5Ox5z4R0PUNQJlua2QLnk60WvDO9dbU
YLImaVYUi8uNbsncGyLWAardO6Ez6eB81IESU2F1YRmVHPC0W+UfWcbUCB0hQXEs
5X27Ffq7ARUYbKlzwcuNa3Nae2cVUKcxUodhpjinvffK4nhz8Oz4RuF/Z1uNwLxJ
ylarJ/kQ158qYioPmUDMt80BIuZb57jd2M2SgF/rN6FMHgraYjdKpGX9bnW0ynxK
oxsHxRRGxWpD/q2KbxqaBVOWWE7oajNmMUipzfzQupcCAwEAAaOB/DCB+TAJBgNV
HRMEAjAAMB0GA1UdDgQWBBQK7LQpIlTidHVTGIsC56fnhFUwXDBRBgNVHSMESjBI
gBRlDkkVDTXs16A8lh7wyA1yh7tPQqEapBgwFjEUMBIGA1UEAwwLRWFzeS1SU0Eg
Q0GCFF5S7vQvmT0t9PfQBx961zDjR29MMBMGA1UdJQQMMAoGCCsGAQUFBwMBMAsG
A1UdDwQEAwIFoDBYBgNVHREEUTBPggpnaXRodWIuY29tggwqLmdpdGh1Yi5jb22C
FyouZ2l0aHVidXNlcmNvbnRlbnQuY29tghEqZ2l0aHViYXNzZXRzLmNvbYIHZ2hj
ci5pbzANBgkqhkiG9w0BAQsFAAOCAQEAXFrpNOP79pcThqX/+16jH6QM92GnCa6X
Lq5viI/ApRQGwi+kKxpycQCrkseO4V1upBE1IX+U7XKVMstepGEUDPwbIo9yYsvv
uoaGDgOub0029dsN09KU14jmRVNZ5Lx8dYNHDej9Yll2PvgLteBc4BfPepLX2rNL
bTEgyEhjsdjPLJDDw732MdVi7hqBsMypMMzXRRKhcOH3YnITVf48K1Obk3chgkK0
jS+iuR02IvkpjtLOwHuWoQAAC+l3SMUPqDOgc9ZBn5hW3ICIKrQo1gvjhbTUDemU
sarttL+UNkgB0dyuTUZdvGksRedK3ArQljQIMeE3YKw2hSBbZ3QDig==
-----END CERTIFICATE-----